target datalayout = "e-m:e-p270:32:32-p271:32:32-p272:64:64-i64:64-i128:128-f80:128-n8:16:32:64-S128"
target triple = "x86_64-pc-linux-gnu"

%struct._address = type { i32, i32, ptr, ptr }
%struct._packet_info = type { ptr, ptr, i32, i32, %struct.nstime_t, %struct.nstime_t, %struct.nstime_t, i8, ptr, ptr, ptr, ptr, %struct._address, %struct._address, %struct._address, %struct._address, %struct._address, %struct._address, i32, ptr, i8, [3 x i8], %struct.anon.0, i32, i32, i32, i32, ptr, i8, ptr, ptr, i16, i16, i32, i32, i16, i32, i32, ptr, ptr, ptr, i8, i8, i16, i16, i16, i32, i16, i16, ptr, ptr, ptr, ptr, ptr, i32, i32 }
%struct.nstime_t = type { i64, i32 }
%struct.anon.0 = type { i8, [3 x i8] }
%struct.conversation_addr_port_endpoints = type { %struct._address, %struct._address, i32, i32, i32 }

@.str = private unnamed_addr constant [29 x i8] c"%s:%u: failed assertion \22%s\22\00", align 1
@.str.1 = private unnamed_addr constant [20 x i8] c"epan/conversation.c\00", align 1
@.str.14 = private unnamed_addr constant [2 x i8] c"0\00", align 1

; Function Attrs: null_pointer_is_valid sspstrong uwtable
define i32 @conversation_pt_to_conversation_type(i32 noundef %0) #0 {
  %2 = alloca i32, align 4
  %3 = alloca i32, align 4
  store i32 %0, ptr %3, align 4
  %4 = load i32, ptr %3, align 4
  switch i32 %4, label %19 [
    i32 0, label %5
    i32 1, label %6
    i32 2, label %7
    i32 3, label %8
    i32 4, label %9
    i32 5, label %10
    i32 6, label %11
    i32 7, label %12
    i32 8, label %13
    i32 9, label %14
    i32 10, label %15
    i32 11, label %16
    i32 12, label %17
    i32 13, label %18
  ]

5:                                                ; preds = %1
  store i32 0, ptr %2, align 4
  br label %20

6:                                                ; preds = %1
  store i32 1, ptr %2, align 4
  br label %20

7:                                                ; preds = %1
  store i32 2, ptr %2, align 4
  br label %20

8:                                                ; preds = %1
  store i32 3, ptr %2, align 4
  br label %20

9:                                                ; preds = %1
  store i32 4, ptr %2, align 4
  br label %20

10:                                               ; preds = %1
  store i32 5, ptr %2, align 4
  br label %20

11:                                               ; preds = %1
  store i32 8, ptr %2, align 4
  br label %20

12:                                               ; preds = %1
  store i32 10, ptr %2, align 4
  br label %20

13:                                               ; preds = %1
  store i32 12, ptr %2, align 4
  br label %20

14:                                               ; preds = %1
  store i32 13, ptr %2, align 4
  br label %20

15:                                               ; preds = %1
  store i32 14, ptr %2, align 4
  br label %20

16:                                               ; preds = %1
  store i32 15, ptr %2, align 4
  br label %20

17:                                               ; preds = %1
  store i32 29, ptr %2, align 4
  br label %20

18:                                               ; preds = %1
  store i32 33, ptr %2, align 4
  br label %20

19:                                               ; preds = %1
  call void (ptr, ...) @proto_report_dissector_bug(ptr noundef @.str, ptr noundef @.str.1, i32 noundef 2669, ptr noundef @.str.14) #13
  unreachable

20:                                               ; preds = %18, %17, %16, %15, %14, %13, %12, %11, %10, %9, %8, %7, %6, %5
  %21 = load i32, ptr %2, align 4
  ret i32 %21
}

; Function Attrs: null_pointer_is_valid sspstrong uwtable
define ptr @find_or_create_conversation(ptr noundef %0) #0 {
  %2 = alloca ptr, align 8
  %3 = alloca ptr, align 8
  store ptr %0, ptr %2, align 8
  call void @llvm.lifetime.start.p0(i64 8, ptr %3) #12
  store ptr null, ptr %3, align 8
  %4 = load ptr, ptr %2, align 8
  %5 = call ptr @find_conversation_pinfo(ptr noundef %4, i32 noundef 0)
  store ptr %5, ptr %3, align 8
  %6 = icmp eq ptr %5, null
  br i1 %6, label %7, label %74

7:                                                ; preds = %1
  %8 = load ptr, ptr %2, align 8
  %9 = getelementptr inbounds nuw %struct._packet_info, ptr %8, i32 0, i32 28
  %10 = load i8, ptr %9, align 8, !range !11, !noundef !12
  %11 = trunc i8 %10 to i1
  br i1 %11, label %12, label %40

12:                                               ; preds = %7
  %13 = load ptr, ptr %2, align 8
  %14 = getelementptr inbounds nuw %struct._packet_info, ptr %13, i32 0, i32 3
  %15 = load i32, ptr %14, align 4
  %16 = load ptr, ptr %2, align 8
  %17 = getelementptr inbounds nuw %struct._packet_info, ptr %16, i32 0, i32 29
  %18 = load ptr, ptr %17, align 8
  %19 = getelementptr inbounds nuw %struct.conversation_addr_port_endpoints, ptr %18, i32 0, i32 0
  %20 = load ptr, ptr %2, align 8
  %21 = getelementptr inbounds nuw %struct._packet_info, ptr %20, i32 0, i32 29
  %22 = load ptr, ptr %21, align 8
  %23 = getelementptr inbounds nuw %struct.conversation_addr_port_endpoints, ptr %22, i32 0, i32 1
  %24 = load ptr, ptr %2, align 8
  %25 = getelementptr inbounds nuw %struct._packet_info, ptr %24, i32 0, i32 29
  %26 = load ptr, ptr %25, align 8
  %27 = getelementptr inbounds nuw %struct.conversation_addr_port_endpoints, ptr %26, i32 0, i32 4
  %28 = load i32, ptr %27, align 8
  %29 = load ptr, ptr %2, align 8
  %30 = getelementptr inbounds nuw %struct._packet_info, ptr %29, i32 0, i32 29
  %31 = load ptr, ptr %30, align 8
  %32 = getelementptr inbounds nuw %struct.conversation_addr_port_endpoints, ptr %31, i32 0, i32 2
  %33 = load i32, ptr %32, align 8
  %34 = load ptr, ptr %2, align 8
  %35 = getelementptr inbounds nuw %struct._packet_info, ptr %34, i32 0, i32 29
  %36 = load ptr, ptr %35, align 8
  %37 = getelementptr inbounds nuw %struct.conversation_addr_port_endpoints, ptr %36, i32 0, i32 3
  %38 = load i32, ptr %37, align 4
  %39 = call ptr @conversation_new(i32 noundef %15, ptr noundef %19, ptr noundef %23, i32 noundef %28, i32 noundef %33, i32 noundef %38, i32 noundef 0)
  store ptr %39, ptr %3, align 8
  br label %73

40:                                               ; preds = %7
  %41 = load ptr, ptr %2, align 8
  %42 = getelementptr inbounds nuw %struct._packet_info, ptr %41, i32 0, i32 30
  %43 = load ptr, ptr %42, align 8
  %44 = icmp ne ptr %43, null
  br i1 %44, label %45, label %53

45:                                               ; preds = %40
  %46 = load ptr, ptr %2, align 8
  %47 = getelementptr inbounds nuw %struct._packet_info, ptr %46, i32 0, i32 3
  %48 = load i32, ptr %47, align 4
  %49 = load ptr, ptr %2, align 8
  %50 = getelementptr inbounds nuw %struct._packet_info, ptr %49, i32 0, i32 30
  %51 = load ptr, ptr %50, align 8
  %52 = call ptr @conversation_new_full(i32 noundef %48, ptr noundef %51)
  store ptr %52, ptr %3, align 8
  br label %72

53:                                               ; preds = %40
  %54 = load ptr, ptr %2, align 8
  %55 = getelementptr inbounds nuw %struct._packet_info, ptr %54, i32 0, i32 3
  %56 = load i32, ptr %55, align 4
  %57 = load ptr, ptr %2, align 8
  %58 = getelementptr inbounds nuw %struct._packet_info, ptr %57, i32 0, i32 16
  %59 = load ptr, ptr %2, align 8
  %60 = getelementptr inbounds nuw %struct._packet_info, ptr %59, i32 0, i32 17
  %61 = load ptr, ptr %2, align 8
  %62 = getelementptr inbounds nuw %struct._packet_info, ptr %61, i32 0, i32 23
  %63 = load i32, ptr %62, align 8
  %64 = call i32 @conversation_pt_to_conversation_type(i32 noundef %63)
  %65 = load ptr, ptr %2, align 8
  %66 = getelementptr inbounds nuw %struct._packet_info, ptr %65, i32 0, i32 24
  %67 = load i32, ptr %66, align 4
  %68 = load ptr, ptr %2, align 8
  %69 = getelementptr inbounds nuw %struct._packet_info, ptr %68, i32 0, i32 25
  %70 = load i32, ptr %69, align 8
  %71 = call ptr @conversation_new(i32 noundef %56, ptr noundef %58, ptr noundef %60, i32 noundef %64, i32 noundef %67, i32 noundef %70, i32 noundef 0)
  store ptr %71, ptr %3, align 8
  br label %72

72:                                               ; preds = %53, %45
  br label %73

73:                                               ; preds = %72, %12
  br label %74

74:                                               ; preds = %73, %1
  %75 = load ptr, ptr %3, align 8
  call void @llvm.lifetime.end.p0(i64 8, ptr %3) #12
  ret ptr %75
}