; Function Attrs: null_pointer_is_valid sspstrong uwtable
define ptr @find_or_create_conversation(ptr noundef %0) local_unnamed_addr #0 {
  %2 = tail call ptr @find_conversation_pinfo(ptr noundef %0, i32 noundef 0)
  %3 = icmp eq ptr %2, null
  br i1 %3, label %4, label %41

4:                                                ; preds = %1
  %5 = getelementptr inbounds nuw i8, ptr %0, i64 304
  %6 = load i8, ptr %5, align 8, !range !15, !noundef !16
  %7 = trunc nuw i8 %6 to i1
  br i1 %7, label %8, label %21

8:                                                ; preds = %4
  %9 = getelementptr inbounds nuw i8, ptr %0, i64 20
  %10 = load i32, ptr %9, align 4
  %11 = getelementptr inbounds nuw i8, ptr %0, i64 312
  %12 = load ptr, ptr %11, align 8
  %13 = getelementptr inbounds nuw i8, ptr %12, i64 24
  %14 = getelementptr inbounds nuw i8, ptr %12, i64 56
  %15 = load i32, ptr %14, align 8
  %16 = getelementptr inbounds nuw i8, ptr %12, i64 48
  %17 = load i32, ptr %16, align 8
  %18 = getelementptr inbounds nuw i8, ptr %12, i64 52
  %19 = load i32, ptr %18, align 4
  %20 = tail call ptr @conversation_new(i32 noundef %10, ptr noundef %12, ptr noundef nonnull %13, i32 noundef %15, i32 noundef %17, i32 noundef %19, i32 noundef 0)
  br label %41

21:                                               ; preds = %4
  %22 = getelementptr inbounds nuw i8, ptr %0, i64 320
  %23 = load ptr, ptr %22, align 8
  %.not = icmp eq ptr %23, null
  %24 = getelementptr inbounds nuw i8, ptr %0, i64 20
  %25 = load i32, ptr %24, align 4
  br i1 %.not, label %28, label %26

26:                                               ; preds = %21
  %27 = tail call ptr @conversation_new_full(i32 noundef %25, ptr noundef nonnull %23)
  br label %41

28:                                               ; preds = %21
  %29 = getelementptr inbounds nuw i8, ptr %0, i64 280
  %30 = load i32, ptr %29, align 8
  %31 = icmp ult i32 %30, 14
  br i1 %31, label %switch.lookup, label %32

32:                                               ; preds = %28
  tail call void (ptr, ...) @proto_report_dissector_bug(ptr noundef nonnull @.str, ptr noundef nonnull @.str.1, i32 noundef 2669, ptr noundef nonnull @.str.14) #16
  unreachable

switch.lookup:                                    ; preds = %28
  %33 = getelementptr inbounds nuw i8, ptr %0, i64 232
  %34 = getelementptr inbounds nuw i8, ptr %0, i64 208
  %35 = zext nneg i32 %30 to i64
  %switch.gep = getelementptr inbounds nuw [14 x i32], ptr @switch.table.conversation_pt_to_endpoint_type, i64 0, i64 %35
  %switch.load = load i32, ptr %switch.gep, align 4
  %36 = getelementptr inbounds nuw i8, ptr %0, i64 284
  %37 = load i32, ptr %36, align 4
  %38 = getelementptr inbounds nuw i8, ptr %0, i64 288
  %39 = load i32, ptr %38, align 8
  %40 = tail call ptr @conversation_new(i32 noundef %25, ptr noundef nonnull %34, ptr noundef nonnull %33, i32 noundef %switch.load, i32 noundef %37, i32 noundef %39, i32 noundef 0)
  br label %41

41:                                               ; preds = %8, %switch.lookup, %26, %1
  %.0 = phi ptr [ %20, %8 ], [ %27, %26 ], [ %40, %switch.lookup ], [ %2, %1 ]
  ret ptr %.0
}